; Function Attrs: mustprogress nounwind uwtable
define internal void @_ZN12_GLOBAL__N_154ReflectionTest_TestFlagSaverVsUpdateViaReflection_TestD0Ev(ptr noundef nonnull align 8 dereferenceable(24) %this) unnamed_addr #7 align 2 personality ptr @__gxx_personality_v0 {
entry:
  store ptr getelementptr inbounds ({ [8 x ptr] }, ptr @_ZTVN12_GLOBAL__N_114ReflectionTestE, i64 0, i32 0, i64 2), ptr %this, align 8
  %flag_saver_.i.i = getelementptr inbounds i8, ptr %this, i64 16
  %0 = load ptr, ptr %flag_saver_.i.i, align 8
  %cmp.not.i.i.i = icmp eq ptr %0, null
  br i1 %cmp.not.i.i.i, label %_ZN12_GLOBAL__N_154ReflectionTest_TestFlagSaverVsUpdateViaReflection_TestD2Ev.exit, label %_ZNKSt14default_deleteIN4absl9FlagSaverEEclEPS1_.exit.i.i.i

_ZNKSt14default_deleteIN4absl9FlagSaverEEclEPS1_.exit.i.i.i: ; preds = %entry
  tail call void @_ZN4absl9FlagSaverD1Ev(ptr noundef nonnull align 8 dereferenceable(8) %0) #28
  tail call void @_ZdlPv(ptr noundef nonnull %0) #27
  br label %_ZN12_GLOBAL__N_154ReflectionTest_TestFlagSaverVsUpdateViaReflection_TestD2Ev.exit

_ZN12_GLOBAL__N_154ReflectionTest_TestFlagSaverVsUpdateViaReflection_TestD2Ev.exit: ; preds = %entry, %_ZNKSt14default_deleteIN4absl9FlagSaverEEclEPS1_.exit.i.i.i
  store ptr null, ptr %flag_saver_.i.i, align 8
  tail call void @_ZN7testing4TestD2Ev(ptr noundef nonnull align 8 dereferenceable(16) %this) #28
  tail call void @_ZdlPv(ptr noundef nonnull %this) #27
  ret void
}